; Function Attrs: mustprogress nounwind uwtable
define dso_local void @_ZN23DefaultProgramGeneratorD0Ev(ptr noundef nonnull align 8 dereferenceable(40) %0) unnamed_addr #4 align 2 personality ptr @__gxx_personality_v0 {
  store ptr getelementptr inbounds ({ [8 x ptr] }, ptr @_ZTV23DefaultProgramGenerator, i64 0, i32 0, i64 2), ptr %0, align 8
  invoke void @_ZN12Finalization14doFinalizationEv()
          to label %2 unwind label %10

2:                                                ; preds = %1
  %3 = getelementptr inbounds i8, ptr %0, i64 32
  %4 = load ptr, ptr %3, align 8
  %5 = icmp eq ptr %4, null
  br i1 %5, label %_ZN23DefaultProgramGeneratorD2Ev.exit, label %6

6:                                                ; preds = %2
  %7 = load ptr, ptr %4, align 8
  %8 = getelementptr inbounds i8, ptr %7, i64 8
  %9 = load ptr, ptr %8, align 8
  tail call void %9(ptr noundef nonnull align 8 dereferenceable(8) %4) #8
  br label %_ZN23DefaultProgramGeneratorD2Ev.exit

10:                                               ; preds = %1
  %11 = landingpad { ptr, i32 }
          catch ptr null
  %12 = extractvalue { ptr, i32 } %11, 0
  tail call void @__clang_call_terminate(ptr %12) #9
  unreachable

_ZN23DefaultProgramGeneratorD2Ev.exit:            ; preds = %2, %6
  tail call void @_ZN19AbsProgramGeneratorD2Ev(ptr noundef nonnull align 8 dereferenceable(8) %0) #8
  tail call void @_ZdlPv(ptr noundef nonnull %0) #10
  ret void
}